#include <math.h>
#include <stdio.h>
#include <stdlib.h>
#include <string.h>


int main()
{
    double x,y;
    char a[501],b[501];
    int i,t=0,m=0,n=0,mark=1;
    scanf("%lf",&x);
    getchar();
    gets(a);
    gets(b);
    for(i=0;a[i];i++)
    {
        m=m+1;
        if(a[i]!='A'&&a[i]!='T'&&a[i]!='C'&&a[i]!='G')
            mark=0;
    }
    for(i=0;b[i];i++)
    {
        n=n+1;
        if(b[i]!='A'&&b[i]!='T'&&b[i]!='C'&&b[i]!='G')
            mark=0;
    }
    if(m!=n||mark==0)
        printf("error");
    else
    {
        for(i=0;i<m;i++)
        {
            if(a[i]==b[i])
                t=t+1;
        }
        y=t/(double)m;
        if(y>=x)
            printf("yes");
        else
            printf("no");
    }
    return 0;
}

