; ModuleID = '5/878.c'
source_filename = "5/878.c"
target datalayout = "e-m:e-p270:32:32-p271:32:32-p272:64:64-i64:64-f80:128-n8:16:32:64-S128"
target triple = "x86_64-pc-linux-gnu"

@.str = private unnamed_addr constant [4 x i8] c"%lf\00", align 1
@.str.1 = private unnamed_addr constant [6 x i8] c"error\00", align 1
@.str.2 = private unnamed_addr constant [4 x i8] c"yes\00", align 1
@.str.3 = private unnamed_addr constant [3 x i8] c"no\00", align 1

; Function Attrs: noinline nounwind uwtable
define dso_local i32 @main() #0 {
  %1 = alloca i32, align 4
  %2 = alloca double, align 8
  %3 = alloca double, align 8
  %4 = alloca [501 x i8], align 16
  %5 = alloca [501 x i8], align 16
  %6 = alloca i32, align 4
  %7 = alloca i32, align 4
  %8 = alloca i32, align 4
  %9 = alloca i32, align 4
  %10 = alloca i32, align 4
  store i32 0, i32* %1, align 4
  store i32 0, i32* %7, align 4
  store i32 0, i32* %8, align 4
  store i32 0, i32* %9, align 4
  store i32 1, i32* %10, align 4
  %11 = call i32 (i8*, ...) @__isoc99_scanf(i8* getelementptr inbounds ([4 x i8], [4 x i8]* @.str, i64 0, i64 0), double* %2)
  %12 = call i32 @getchar()
  %13 = getelementptr inbounds [501 x i8], [501 x i8]* %4, i64 0, i64 0
  %14 = call i32 (i8*, ...) bitcast (i32 (...)* @gets to i32 (i8*, ...)*)(i8* %13)
  %15 = getelementptr inbounds [501 x i8], [501 x i8]* %5, i64 0, i64 0
  %16 = call i32 (i8*, ...) bitcast (i32 (...)* @gets to i32 (i8*, ...)*)(i8* %15)
  store i32 0, i32* %6, align 4
  br label %17

17:                                               ; preds = %55, %0
  %18 = load i32, i32* %6, align 4
  %19 = sext i32 %18 to i64
  %20 = getelementptr inbounds [501 x i8], [501 x i8]* %4, i64 0, i64 %19
  %21 = load i8, i8* %20, align 1
  %22 = icmp ne i8 %21, 0
  br i1 %22, label %23, label %58

23:                                               ; preds = %17
  %24 = load i32, i32* %8, align 4
  %25 = add nsw i32 %24, 1
  store i32 %25, i32* %8, align 4
  %26 = load i32, i32* %6, align 4
  %27 = sext i32 %26 to i64
  %28 = getelementptr inbounds [501 x i8], [501 x i8]* %4, i64 0, i64 %27
  %29 = load i8, i8* %28, align 1
  %30 = sext i8 %29 to i32
  %31 = icmp ne i32 %30, 65
  br i1 %31, label %32, label %54

32:                                               ; preds = %23
  %33 = load i32, i32* %6, align 4
  %34 = sext i32 %33 to i64
  %35 = getelementptr inbounds [501 x i8], [501 x i8]* %4, i64 0, i64 %34
  %36 = load i8, i8* %35, align 1
  %37 = sext i8 %36 to i32
  %38 = icmp ne i32 %37, 84
  br i1 %38, label %39, label %54

39:                                               ; preds = %32
  %40 = load i32, i32* %6, align 4
  %41 = sext i32 %40 to i64
  %42 = getelementptr inbounds [501 x i8], [501 x i8]* %4, i64 0, i64 %41
  %43 = load i8, i8* %42, align 1
  %44 = sext i8 %43 to i32
  %45 = icmp ne i32 %44, 67
  br i1 %45, label %46, label %54

46:                                               ; preds = %39
  %47 = load i32, i32* %6, align 4
  %48 = sext i32 %47 to i64
  %49 = getelementptr inbounds [501 x i8], [501 x i8]* %4, i64 0, i64 %48
  %50 = load i8, i8* %49, align 1
  %51 = sext i8 %50 to i32
  %52 = icmp ne i32 %51, 71
  br i1 %52, label %53, label %54

53:                                               ; preds = %46
  store i32 0, i32* %10, align 4
  br label %54

54:                                               ; preds = %53, %46, %39, %32, %23
  br label %55

55:                                               ; preds = %54
  %56 = load i32, i32* %6, align 4
  %57 = add nsw i32 %56, 1
  store i32 %57, i32* %6, align 4
  br label %17

58:                                               ; preds = %17
  store i32 0, i32* %6, align 4
  br label %59

59:                                               ; preds = %97, %58
  %60 = load i32, i32* %6, align 4
  %61 = sext i32 %60 to i64
  %62 = getelementptr inbounds [501 x i8], [501 x i8]* %5, i64 0, i64 %61
  %63 = load i8, i8* %62, align 1
  %64 = icmp ne i8 %63, 0
  br i1 %64, label %65, label %100

65:                                               ; preds = %59
  %66 = load i32, i32* %9, align 4
  %67 = add nsw i32 %66, 1
  store i32 %67, i32* %9, align 4
  %68 = load i32, i32* %6, align 4
  %69 = sext i32 %68 to i64
  %70 = getelementptr inbounds [501 x i8], [501 x i8]* %5, i64 0, i64 %69
  %71 = load i8, i8* %70, align 1
  %72 = sext i8 %71 to i32
  %73 = icmp ne i32 %72, 65
  br i1 %73, label %74, label %96

74:                                               ; preds = %65
  %75 = load i32, i32* %6, align 4
  %76 = sext i32 %75 to i64
  %77 = getelementptr inbounds [501 x i8], [501 x i8]* %5, i64 0, i64 %76
  %78 = load i8, i8* %77, align 1
  %79 = sext i8 %78 to i32
  %80 = icmp ne i32 %79, 84
  br i1 %80, label %81, label %96

81:                                               ; preds = %74
  %82 = load i32, i32* %6, align 4
  %83 = sext i32 %82 to i64
  %84 = getelementptr inbounds [501 x i8], [501 x i8]* %5, i64 0, i64 %83
  %85 = load i8, i8* %84, align 1
  %86 = sext i8 %85 to i32
  %87 = icmp ne i32 %86, 67
  br i1 %87, label %88, label %96

88:                                               ; preds = %81
  %89 = load i32, i32* %6, align 4
  %90 = sext i32 %89 to i64
  %91 = getelementptr inbounds [501 x i8], [501 x i8]* %5, i64 0, i64 %90
  %92 = load i8, i8* %91, align 1
  %93 = sext i8 %92 to i32
  %94 = icmp ne i32 %93, 71
  br i1 %94, label %95, label %96

95:                                               ; preds = %88
  store i32 0, i32* %10, align 4
  br label %96

96:                                               ; preds = %95, %88, %81, %74, %65
  br label %97

97:                                               ; preds = %96
  %98 = load i32, i32* %6, align 4
  %99 = add nsw i32 %98, 1
  store i32 %99, i32* %6, align 4
  br label %59

100:                                              ; preds = %59
  %101 = load i32, i32* %8, align 4
  %102 = load i32, i32* %9, align 4
  %103 = icmp ne i32 %101, %102
  br i1 %103, label %107, label %104

104:                                              ; preds = %100
  %105 = load i32, i32* %10, align 4
  %106 = icmp eq i32 %105, 0
  br i1 %106, label %107, label %109

107:                                              ; preds = %104, %100
  %108 = call i32 (i8*, ...) @printf(i8* getelementptr inbounds ([6 x i8], [6 x i8]* @.str.1, i64 0, i64 0))
  br label %147

109:                                              ; preds = %104
  store i32 0, i32* %6, align 4
  br label %110

110:                                              ; preds = %130, %109
  %111 = load i32, i32* %6, align 4
  %112 = load i32, i32* %8, align 4
  %113 = icmp slt i32 %111, %112
  br i1 %113, label %114, label %133

114:                                              ; preds = %110
  %115 = load i32, i32* %6, align 4
  %116 = sext i32 %115 to i64
  %117 = getelementptr inbounds [501 x i8], [501 x i8]* %4, i64 0, i64 %116
  %118 = load i8, i8* %117, align 1
  %119 = sext i8 %118 to i32
  %120 = load i32, i32* %6, align 4
  %121 = sext i32 %120 to i64
  %122 = getelementptr inbounds [501 x i8], [501 x i8]* %5, i64 0, i64 %121
  %123 = load i8, i8* %122, align 1
  %124 = sext i8 %123 to i32
  %125 = icmp eq i32 %119, %124
  br i1 %125, label %126, label %129

126:                                              ; preds = %114
  %127 = load i32, i32* %7, align 4
  %128 = add nsw i32 %127, 1
  store i32 %128, i32* %7, align 4
  br label %129

129:                                              ; preds = %126, %114
  br label %130

130:                                              ; preds = %129
  %131 = load i32, i32* %6, align 4
  %132 = add nsw i32 %131, 1
  store i32 %132, i32* %6, align 4
  br label %110

133:                                              ; preds = %110
  %134 = load i32, i32* %7, align 4
  %135 = sitofp i32 %134 to double
  %136 = load i32, i32* %8, align 4
  %137 = sitofp i32 %136 to double
  %138 = fdiv double %135, %137
  store double %138, double* %3, align 8
  %139 = load double, double* %3, align 8
  %140 = load double, double* %2, align 8
  %141 = fcmp oge double %139, %140
  br i1 %141, label %142, label %144

142:                                              ; preds = %133
  %143 = call i32 (i8*, ...) @printf(i8* getelementptr inbounds ([4 x i8], [4 x i8]* @.str.2, i64 0, i64 0))
  br label %146

144:                                              ; preds = %133
  %145 = call i32 (i8*, ...) @printf(i8* getelementptr inbounds ([3 x i8], [3 x i8]* @.str.3, i64 0, i64 0))
  br label %146

146:                                              ; preds = %144, %142
  br label %147

147:                                              ; preds = %146, %107
  ret i32 0
}

declare dso_local i32 @__isoc99_scanf(i8*, ...) #1

declare dso_local i32 @getchar() #1

declare dso_local i32 @gets(...) #1

declare dso_local i32 @printf(i8*, ...) #1


!llvm.module.flags = !{!0}
!llvm.ident = !{!1}

!0 = !{i32 1, !"wchar_size", i32 4}
!1 = !{!"clang version 10.0.0-4ubuntu1 "}
